target datalayout = "e-m:e-p270:32:32-p271:32:32-p272:64:64-i64:64-i128:128-f80:128-n8:16:32:64-S128"
target triple = "x86_64-pc-linux-gnu"

%struct.pbl_descriptor_pool_t = type { ptr, ptr, ptr, ptr, ptr, ptr }

; Function Attrs: null_pointer_is_valid sspstrong uwtable
define hidden void @pbl_free_pool(ptr noundef %0) #0 {
  %2 = alloca ptr, align 8
  store ptr %0, ptr %2, align 8
  %3 = load ptr, ptr %2, align 8
  %4 = icmp eq ptr %3, null
  br i1 %4, label %5, label %6

5:                                                ; preds = %1
  br label %20

6:                                                ; preds = %1
  %7 = load ptr, ptr %2, align 8
  %8 = getelementptr inbounds nuw %struct.pbl_descriptor_pool_t, ptr %7, i32 0, i32 0
  %9 = load ptr, ptr %8, align 8
  call void @g_queue_free_full(ptr noundef %9, ptr noundef @g_free)
  %10 = load ptr, ptr %2, align 8
  %11 = getelementptr inbounds nuw %struct.pbl_descriptor_pool_t, ptr %10, i32 0, i32 2
  %12 = load ptr, ptr %11, align 8
  call void @g_hash_table_destroy(ptr noundef %12)
  %13 = load ptr, ptr %2, align 8
  %14 = getelementptr inbounds nuw %struct.pbl_descriptor_pool_t, ptr %13, i32 0, i32 4
  %15 = load ptr, ptr %14, align 8
  call void @g_queue_free(ptr noundef %15)
  %16 = load ptr, ptr %2, align 8
  %17 = getelementptr inbounds nuw %struct.pbl_descriptor_pool_t, ptr %16, i32 0, i32 3
  %18 = load ptr, ptr %17, align 8
  call void @g_hash_table_destroy(ptr noundef %18)
  %19 = load ptr, ptr %2, align 8
  call void @g_free(ptr noundef %19)
  br label %20

20:                                               ; preds = %6, %5
  ret void
}