; Function Attrs: null_pointer_is_valid sspstrong uwtable
define hidden void @pbl_free_pool(ptr noundef %0) local_unnamed_addr #0 {
  %2 = icmp eq ptr %0, null
  br i1 %2, label %11, label %3

3:                                                ; preds = %1
  %4 = load ptr, ptr %0, align 8
  tail call void @g_queue_free_full(ptr noundef %4, ptr noundef nonnull @g_free)
  %5 = getelementptr inbounds nuw i8, ptr %0, i64 16
  %6 = load ptr, ptr %5, align 8
  tail call void @g_hash_table_destroy(ptr noundef %6)
  %7 = getelementptr inbounds nuw i8, ptr %0, i64 32
  %8 = load ptr, ptr %7, align 8
  tail call void @g_queue_free(ptr noundef %8)
  %9 = getelementptr inbounds nuw i8, ptr %0, i64 24
  %10 = load ptr, ptr %9, align 8
  tail call void @g_hash_table_destroy(ptr noundef %10)
  tail call void @g_free(ptr noundef nonnull %0)
  br label %11

11:                                               ; preds = %1, %3
  ret void
}